target datalayout = "e-m:e-p270:32:32-p271:32:32-p272:64:64-i64:64-i128:128-f80:128-n8:16:32:64-S128"
target triple = "x86_64-pc-linux-gnu"

%"struct.faiss::HNSW" = type <{ %"class.std::vector", %"class.std::vector.0", %"class.std::vector.0", %"class.std::vector.5", %"class.std::vector.0", i32, [4 x i8], %"struct.faiss::RandomGenerator", i32, i32, i32, i8, i8, [2 x i8] }>
%"class.std::vector" = type { %"struct.std::_Vector_base" }
%"struct.std::_Vector_base" = type { %"struct.std::_Vector_base<double, std::allocator<double>>::_Vector_impl" }
%"struct.std::_Vector_base<double, std::allocator<double>>::_Vector_impl" = type { %"struct.std::_Vector_base<double, std::allocator<double>>::_Vector_impl_data" }
%"struct.std::_Vector_base<double, std::allocator<double>>::_Vector_impl_data" = type { ptr, ptr, ptr }
%"class.std::vector.5" = type { %"struct.std::_Vector_base.6" }
%"struct.std::_Vector_base.6" = type { %"struct.std::_Vector_base<unsigned long, std::allocator<unsigned long>>::_Vector_impl" }
%"struct.std::_Vector_base<unsigned long, std::allocator<unsigned long>>::_Vector_impl" = type { %"struct.std::_Vector_base<unsigned long, std::allocator<unsigned long>>::_Vector_impl_data" }
%"struct.std::_Vector_base<unsigned long, std::allocator<unsigned long>>::_Vector_impl_data" = type { ptr, ptr, ptr }
%"class.std::vector.0" = type { %"struct.std::_Vector_base.1" }
%"struct.std::_Vector_base.1" = type { %"struct.std::_Vector_base<int, std::allocator<int>>::_Vector_impl" }
%"struct.std::_Vector_base<int, std::allocator<int>>::_Vector_impl" = type { %"struct.std::_Vector_base<int, std::allocator<int>>::_Vector_impl_data" }
%"struct.std::_Vector_base<int, std::allocator<int>>::_Vector_impl_data" = type { ptr, ptr, ptr }
%"struct.faiss::RandomGenerator" = type { %"class.std::mersenne_twister_engine" }
%"class.std::mersenne_twister_engine" = type { [624 x i64], i64 }

; Function Attrs: mustprogress nounwind uwtable
define linkonce_odr noundef nonnull align 4 dereferenceable(4) ptr @_ZNKSt6vectorIiSaIiEEixEm(ptr noundef nonnull align 8 dereferenceable(24) %0, i64 noundef %1) #5 comdat align 2 {
  %3 = alloca ptr, align 8
  %4 = alloca i64, align 8
  store ptr %0, ptr %3, align 8, !tbaa !11
  store i64 %1, ptr %4, align 8, !tbaa !19
  %5 = load ptr, ptr %3, align 8
  %6 = getelementptr inbounds nuw %"struct.std::_Vector_base.1", ptr %5, i32 0, i32 0
  %7 = getelementptr inbounds nuw %"struct.std::_Vector_base<int, std::allocator<int>>::_Vector_impl_data", ptr %6, i32 0, i32 0
  %8 = load ptr, ptr %7, align 8, !tbaa !16
  %9 = load i64, ptr %4, align 8, !tbaa !19
  %10 = getelementptr inbounds nuw i32, ptr %8, i64 %9
  ret ptr %10
}

; Function Attrs: mustprogress nounwind uwtable
define noundef i32 @_ZNK5faiss4HNSW16cum_nb_neighborsEi(ptr noundef nonnull align 8 dereferenceable(5142) %0, i32 noundef %1) #5 align 2 {
  %3 = alloca ptr, align 8
  %4 = alloca i32, align 4
  store ptr %0, ptr %3, align 8, !tbaa !4
  store i32 %1, ptr %4, align 4, !tbaa !9
  %5 = load ptr, ptr %3, align 8
  %6 = getelementptr inbounds nuw %"struct.faiss::HNSW", ptr %5, i32 0, i32 1
  %7 = load i32, ptr %4, align 4, !tbaa !9
  %8 = sext i32 %7 to i64
  %9 = call noundef nonnull align 4 dereferenceable(4) ptr @_ZNKSt6vectorIiSaIiEEixEm(ptr noundef nonnull align 8 dereferenceable(24) %6, i64 noundef %8) #3
  %10 = load i32, ptr %9, align 4, !tbaa !9
  ret i32 %10
}

; Function Attrs: mustprogress nounwind uwtable
define linkonce_odr noundef nonnull align 8 dereferenceable(8) ptr @_ZNKSt6vectorImSaImEEixEm(ptr noundef nonnull align 8 dereferenceable(24) %0, i64 noundef %1) #5 comdat align 2 {
  %3 = alloca ptr, align 8
  %4 = alloca i64, align 8
  store ptr %0, ptr %3, align 8, !tbaa !43
  store i64 %1, ptr %4, align 8, !tbaa !19
  %5 = load ptr, ptr %3, align 8
  %6 = getelementptr inbounds nuw %"struct.std::_Vector_base.6", ptr %5, i32 0, i32 0
  %7 = getelementptr inbounds nuw %"struct.std::_Vector_base<unsigned long, std::allocator<unsigned long>>::_Vector_impl_data", ptr %6, i32 0, i32 0
  %8 = load ptr, ptr %7, align 8, !tbaa !45
  %9 = load i64, ptr %4, align 8, !tbaa !19
  %10 = getelementptr inbounds nuw i64, ptr %8, i64 %9
  ret ptr %10
}

; Function Attrs: mustprogress nounwind uwtable
define void @_ZNK5faiss4HNSW14neighbor_rangeEliPmS1_(ptr noundef nonnull align 8 dereferenceable(5142) %0, i64 noundef %1, i32 noundef %2, ptr noundef %3, ptr noundef %4) #5 align 2 {
  %6 = alloca ptr, align 8
  %7 = alloca i64, align 8
  %8 = alloca i32, align 4
  %9 = alloca ptr, align 8
  %10 = alloca ptr, align 8
  %11 = alloca i64, align 8
  store ptr %0, ptr %6, align 8, !tbaa !4
  store i64 %1, ptr %7, align 8, !tbaa !19
  store i32 %2, ptr %8, align 4, !tbaa !9
  store ptr %3, ptr %9, align 8, !tbaa !41
  store ptr %4, ptr %10, align 8, !tbaa !41
  %12 = load ptr, ptr %6, align 8
  call void @llvm.lifetime.start.p0(i64 8, ptr %11) #3
  %13 = getelementptr inbounds nuw %"struct.faiss::HNSW", ptr %12, i32 0, i32 3
  %14 = load i64, ptr %7, align 8, !tbaa !19
  %15 = call noundef nonnull align 8 dereferenceable(8) ptr @_ZNKSt6vectorImSaImEEixEm(ptr noundef nonnull align 8 dereferenceable(24) %13, i64 noundef %14) #3
  %16 = load i64, ptr %15, align 8, !tbaa !19
  store i64 %16, ptr %11, align 8, !tbaa !19
  %17 = load i64, ptr %11, align 8, !tbaa !19
  %18 = load i32, ptr %8, align 4, !tbaa !9
  %19 = call noundef i32 @_ZNK5faiss4HNSW16cum_nb_neighborsEi(ptr noundef nonnull align 8 dereferenceable(5142) %12, i32 noundef %18)
  %20 = sext i32 %19 to i64
  %21 = add i64 %17, %20
  %22 = load ptr, ptr %9, align 8, !tbaa !41
  store i64 %21, ptr %22, align 8, !tbaa !19
  %23 = load i64, ptr %11, align 8, !tbaa !19
  %24 = load i32, ptr %8, align 4, !tbaa !9
  %25 = add nsw i32 %24, 1
  %26 = call noundef i32 @_ZNK5faiss4HNSW16cum_nb_neighborsEi(ptr noundef nonnull align 8 dereferenceable(5142) %12, i32 noundef %25)
  %27 = sext i32 %26 to i64
  %28 = add i64 %23, %27
  %29 = load ptr, ptr %10, align 8, !tbaa !41
  store i64 %28, ptr %29, align 8, !tbaa !19
  call void @llvm.lifetime.end.p0(i64 8, ptr %11) #3
  ret void
}