; Function Attrs: mustprogress nofree norecurse nosync nounwind willreturn memory(read, argmem: readwrite, inaccessiblemem: none) uwtable
define void @_ZNK5faiss4HNSW14neighbor_rangeEliPmS1_(ptr noundef nonnull readonly align 8 captures(none) dereferenceable(5142) %0, i64 noundef %1, i32 noundef %2, ptr noundef writeonly captures(none) initializes((0, 8)) %3, ptr noundef writeonly captures(none) initializes((0, 8)) %4) local_unnamed_addr #12 align 2 {
  %6 = getelementptr inbounds nuw i8, ptr %0, i64 72
  %7 = load ptr, ptr %6, align 8, !tbaa !25
  %8 = getelementptr inbounds nuw i64, ptr %7, i64 %1
  %9 = load i64, ptr %8, align 8, !tbaa !28
  %10 = getelementptr inbounds nuw i8, ptr %0, i64 24
  %11 = sext i32 %2 to i64
  %12 = load ptr, ptr %10, align 8, !tbaa !10
  %13 = getelementptr i32, ptr %12, i64 %11
  %14 = load i32, ptr %13, align 4, !tbaa !19
  %15 = sext i32 %14 to i64
  %16 = add i64 %9, %15
  store i64 %16, ptr %3, align 8, !tbaa !28
  %17 = getelementptr i8, ptr %13, i64 4
  %18 = load i32, ptr %17, align 4, !tbaa !19
  %19 = sext i32 %18 to i64
  %20 = add i64 %9, %19
  store i64 %20, ptr %4, align 8, !tbaa !28
  ret void
}